; Function Attrs: cold nounwind optsize uwtable
define internal void @uninit(ptr noundef readonly captures(none) %0) #0 {
  %2 = alloca ptr, align 8
  %3 = getelementptr inbounds nuw i8, ptr %0, i64 72
  %4 = load ptr, ptr %3, align 8, !tbaa !4
  %5 = getelementptr inbounds nuw i8, ptr %4, i64 152
  %6 = getelementptr inbounds nuw i8, ptr %4, i64 1186
  %7 = load i16, ptr %6, align 2, !tbaa !27
  %.not2.i = icmp eq i16 %7, 0
  br i1 %.not2.i, label %ff_bufqueue_discard_all.exit, label %ff_bufqueue_get.exit.lr.ph.i

ff_bufqueue_get.exit.lr.ph.i:                     ; preds = %1
  %8 = getelementptr inbounds nuw i8, ptr %4, i64 1184
  br label %ff_bufqueue_get.exit.i

ff_bufqueue_get.exit.i:                           ; preds = %ff_bufqueue_get.exit.i, %ff_bufqueue_get.exit.lr.ph.i
  %9 = phi i16 [ %7, %ff_bufqueue_get.exit.lr.ph.i ], [ %19, %ff_bufqueue_get.exit.i ]
  call void @llvm.lifetime.start.p0(i64 8, ptr nonnull %2) #10
  %10 = load i16, ptr %8, align 8, !tbaa !28
  %11 = zext i16 %10 to i64
  %12 = getelementptr inbounds nuw [129 x ptr], ptr %5, i64 0, i64 %11
  %13 = load ptr, ptr %12, align 8, !tbaa !29
  %14 = add i16 %9, -1
  store i16 %14, ptr %6, align 2, !tbaa !27
  store ptr null, ptr %12, align 8, !tbaa !29
  %15 = zext i16 %10 to i32
  %16 = add nuw nsw i32 %15, 1
  %17 = urem i32 %16, 129
  %18 = trunc nuw nsw i32 %17 to i16
  store i16 %18, ptr %8, align 8, !tbaa !28
  store ptr %13, ptr %2, align 8, !tbaa !29
  call void @av_frame_free(ptr noundef nonnull %2) #10
  call void @llvm.lifetime.end.p0(i64 8, ptr nonnull %2) #10
  %19 = load i16, ptr %6, align 2, !tbaa !27
  %.not.i = icmp eq i16 %19, 0
  br i1 %.not.i, label %ff_bufqueue_discard_all.exit, label %ff_bufqueue_get.exit.i, !llvm.loop !31

ff_bufqueue_discard_all.exit:                     ; preds = %ff_bufqueue_get.exit.i, %1
  ret void
}